Certificate:
    Data:
        Version: 3 (0x2)
        Serial Number: 3 (0x3)
        Signature Algorithm: sha256WithRSAEncryption
        Issuer: C=US, ST=North Carolina, L=Raleigh, O=Example, Inc., CN=example.com Certificate Authority
        Validity
            Not Before: Aug 20 02:31:08 2020 GMT
            Not After : Feb 16 02:31:08 2021 GMT
        Subject: C=US, ST=North Carolina, L=Raleigh, O=Example, Inc., CN=servera.lab.example.com
        Subject Public Key Info:
            Public Key Algorithm: rsaEncryption
                RSA Public-Key: (2048 bit)
                Modulus:
                    00:ad:2e:48:3d:3b:69:c7:9e:6d:a1:0c:f0:42:6a:
                    e9:ad:df:7f:c0:7e:7c:fc:a1:bb:bd:8e:9a:a3:5b:
                    fa:58:78:a4:f2:41:fb:49:72:1f:b7:52:f6:0a:11:
                    44:d3:fb:28:1b:aa:b4:c8:b9:ab:00:0a:80:02:c4:
                    21:fe:92:69:e8:d0:3a:e5:73:70:11:a5:8a:20:e7:
                    32:f5:fe:83:fe:15:6d:95:9a:ec:25:7c:9f:53:45:
                    57:34:3a:f0:75:89:df:4a:40:fe:6e:35:83:ad:f0:
                    9c:ac:da:39:67:06:06:e4:ce:ba:cf:6c:88:9d:7b:
                    21:03:8f:90:4a:bb:ce:d7:28:96:5c:3b:2d:1c:27:
                    89:c9:d5:7b:17:8e:ab:38:ee:bf:2e:fd:f5:ac:8e:
                    2e:0c:a1:5e:c1:1c:26:3a:0d:4e:28:c7:ca:9a:79:
                    ac:6a:74:03:83:73:33:9d:54:dd:89:4f:b2:5c:4c:
                    fe:9f:4e:17:4a:b5:1c:59:72:e7:f6:73:89:e2:ed:
                    b1:ea:83:82:30:c0:94:3b:29:1c:b4:e7:ab:a5:b6:
                    a7:3c:35:24:ea:9b:c1:1e:3e:5a:f1:88:a2:a0:95:
                    14:f2:2c:22:5a:a7:e9:aa:3b:e3:85:41:8c:04:aa:
                    8a:f9:58:90:7b:1e:4e:a4:76:0e:90:98:96:59:7e:
                    2f:35
                Exponent: 65537 (0x10001)
        X509v3 extensions:
            X509v3 Basic Constraints: 
                CA:FALSE
            Netscape Comment: 
                OpenSSL Generated Certificate
            X509v3 Subject Key Identifier: 
                46:21:10:CD:E3:86:E8:49:04:68:46:04:0D:0C:8C:27:85:E8:75:43
            X509v3 Authority Key Identifier: 
                keyid:06:8F:9C:1D:EF:C5:FD:74:65:AE:24:43:D6:36:5D:56:C0:34:EB:1F

    Signature Algorithm: sha256WithRSAEncryption
         87:7f:55:7a:a9:9d:86:f5:8a:0b:84:17:b1:11:a9:b9:aa:b4:
         cd:24:36:ad:a0:ce:43:68:07:dc:fb:ff:83:0e:d5:4f:0a:d4:
         bc:11:d7:d1:d6:61:0d:03:96:ce:03:4a:98:d1:d6:8b:19:9d:
         ba:00:0b:5a:98:bd:4b:21:5d:f7:56:24:6c:4e:92:f6:9c:76:
         b5:f4:b1:06:6a:0a:d2:41:11:a2:3e:4c:84:00:1d:6f:a3:87:
         2f:b0:d3:2f:a1:8a:bd:ca:e2:97:22:40:59:a6:cd:06:cd:ff:
         fe:8d:2c:f3:53:64:9f:10:a6:a8:b3:8f:b0:57:ac:50:4d:16:
         2f:de:62:58:4b:43:97:f0:fb:ab:0d:d6:19:55:04:c0:7c:24:
         2f:93:19:65:79:41:6a:a5:e7:ac:02:03:34:2a:97:16:71:b4:
         97:c4:33:fb:e8:00:62:d4:52:c6:07:8f:e0:ba:c7:fa:65:97:
         6d:34:a3:8f:ed:0f:9c:b3:7a:ee:ef:4a:a6:e8:11:ba:65:cd:
         4a:18:92:70:05:a2:43:ef:56:af:6f:d6:87:30:56:09:d1:07:
         51:0f:71:e3:ed:c1:45:a3:3d:d2:b8:ba:03:89:9d:d0:8f:76:
         50:33:60:4e:ef:18:b6:e1:d6:09:8f:d5:c8:0c:d5:8b:81:5f:
         e4:6a:ad:9a
-----BEGIN CERTIFICATE-----
MIID5DCCAsygAwIBAgIBAzANBgkqhkiG9w0BAQsFADB8MQswCQYDVQQGEwJVUzEX
MBUGA1UECAwOTm9ydGggQ2Fyb2xpbmExEDAOBgNVBAcMB1JhbGVpZ2gxFjAUBgNV
BAoMDUV4YW1wbGUsIEluYy4xKjAoBgNVBAMMIWV4YW1wbGUuY29tIENlcnRpZmlj
YXRlIEF1dGhvcml0eTAeFw0yMDA4MjAwMjMxMDhaFw0yMTAyMTYwMjMxMDhaMHIx
CzAJBgNVBAYTAlVTMRcwFQYDVQQIDA5Ob3J0aCBDYXJvbGluYTEQMA4GA1UEBwwH
UmFsZWlnaDEWMBQGA1UECgwNRXhhbXBsZSwgSW5jLjEgMB4GA1UEAwwXc2VydmVy
YS5sYWIuZXhhbXBsZS5jb20wggEiMA0GCSqGSIb3DQEBAQUAA4IBDwAwggEKAoIB
AQCtLkg9O2nHnm2hDPBCaumt33/Afnz8obu9jpqjW/pYeKTyQftJch+3UvYKEUTT
+ygbqrTIuasACoACxCH+kmno0Drlc3ARpYog5zL1/oP+FW2VmuwlfJ9TRVc0OvB1
id9KQP5uNYOt8Jys2jlnBgbkzrrPbIideyEDj5BKu87XKJZcOy0cJ4nJ1XsXjqs4
7r8u/fWsji4MoV7BHCY6DU4ox8qaeaxqdAODczOdVN2JT7JcTP6fThdKtRxZcuf2
c4ni7bHqg4IwwJQ7KRy056ultqc8NSTqm8EePlrxiKKglRTyLCJap+mqO+OFQYwE
qor5WJB7Hk6kdg6QmJZZfi81AgMBAAGjezB5MAkGA1UdEwQCMAAwLAYJYIZIAYb4
QgENBB8WHU9wZW5TU0wgR2VuZXJhdGVkIENlcnRpZmljYXRlMB0GA1UdDgQWBBRG
IRDN44boSQRoRgQNDIwnheh1QzAfBgNVHSMEGDAWgBQGj5wd78X9dGWuJEPWNl1W
wDTrHzANBgkqhkiG9w0BAQsFAAOCAQEAh39VeqmdhvWKC4QXsRGpuaq0zSQ2raDO
Q2gH3Pv/gw7VTwrUvBHX0dZhDQOWzgNKmNHWixmdugALWpi9SyFd91YkbE6S9px2
tfSxBmoK0kERoj5MhAAdb6OHL7DTL6GKvcrilyJAWabNBs3//o0s81NknxCmqLOP
sFesUE0WL95iWEtDl/D7qw3WGVUEwHwkL5MZZXlBaqXnrAIDNCqXFnG0l8Qz++gA
YtRSxgeP4LrH+mWXbTSjj+0PnLN67u9KpugRumXNShiScAWiQ+9Wr2/WhzBWCdEH
UQ9x4+3BRaM90ri6A4md0I92UDNgTu8YtuHWCY/VyAzVi4Ff5Gqtmg==
-----END CERTIFICATE-----
-----BEGIN PRIVATE KEY-----
MIIEvQIBADANBgkqhkiG9w0BAQEFAASCBKcwggSjAgEAAoIBAQCtLkg9O2nHnm2h
DPBCaumt33/Afnz8obu9jpqjW/pYeKTyQftJch+3UvYKEUTT+ygbqrTIuasACoAC
xCH+kmno0Drlc3ARpYog5zL1/oP+FW2VmuwlfJ9TRVc0OvB1id9KQP5uNYOt8Jys
2jlnBgbkzrrPbIideyEDj5BKu87XKJZcOy0cJ4nJ1XsXjqs47r8u/fWsji4MoV7B
HCY6DU4ox8qaeaxqdAODczOdVN2JT7JcTP6fThdKtRxZcuf2c4ni7bHqg4IwwJQ7
KRy056ultqc8NSTqm8EePlrxiKKglRTyLCJap+mqO+OFQYwEqor5WJB7Hk6kdg6Q
mJZZfi81AgMBAAECggEAd6uewalXrFhe+0Y8lDja54qk9fiyF8UPParYUwBRG2eq
27kakyMopX7PhB9wx2crzQqGSJp8ftfCo6aysv6r7vRNbpb5n0gcDiaVgYVx4lce
VZ4rhq/6TQmCfBYqaZ5vTRlid/fE2aKGMa/OsNFqXBw63PDr6p7WLma7V9k10lkW
06n4Sg87t+jou+rSK7r8A3dNwU1Rp7V8fQ7EVsI2IX1oiDioxDNnQcV2oNrYnEtG
LKJ1DcCHtGJ1KrNkFDT+eJzzH0Iswk6gTxLPlUr+ojzcVeh5htDV5hFq2e5Nbr2l
EQWWy7ncYwvXJpqnn0sA4254/jeroaK8DNYfg2XYwQKBgQDi+1kxfGZkEzXmqeOS
kkYXZrI2FDCP3wDdo6Px8C0xnDF7WAxUOkSQrJ9c9P+IN64q/wh/FFThATdD04i8
Yum26UxV/7ySlINgM9Hq9gz5wxTi9wGKEcPFLvDF6ju2J/nWfa9RdKbivkGkwO0P
orVYtpMrosk7KzxLMnznfjZ70QKBgQDDUiK5oIPAzFIwVxrQE6fqlFVOXY2cV0VH
G7isMBtQdfp42uq9ze1BxvebfkA9avqb8mLFWq2RobnNZEtN3PCmqi1kghuE7tMo
f6NPy6BdGNnigja2IyXuxRX8qPWdFRrRedNmyv21S5xlS0xZo/8QrjZluohQcXwe
MEHK3+4qJQKBgCT1RiWfmtBqrFkdineAJ7eBujzB9tJGPk7YaUZolANC6m+p+3/v
aOChquUo4z6bylkn44tFlTh5yTTbCaWa+XEV9Z7/IAZB9k5AwcpfO+ejExCNpYuE
rvq5VOz04bocMjrxhg1eUBoVXnzkCPWFyb9jIv106Q0gUhXwZ5QN4fMxAoGAf1iI
7XAbFtPgbkYMZEe8fjQyHkLetmUr9P28/P7sgBw7rxpEXHXrz6wS+h1pcuHR/WUe
QsApVD8WbjSK6Hw5puBjchlmKdiwccIuTzNbHfe673SoiT4HWFLFUBM0+DKvZo5A
Z8/HdLGUiXJ7mCJVhaGgM9lXUON84g3ih4xSssUCgYEAo0BNuMp8qvZXS8l3MtSn
eZ8EPCwaxJ+8DJp+F0MWaSEpeQzsh7Yo9tJZ3nK3R5upCQrMTqsPloNgSIjUYk+X
YTUcF/ErbdRXU0XfTl6gmmJ74oLYnLCSiJtyC3w1ozFLpbM/Y66rja1X37PtDqxY
+tktE/wc1IkFXZ3iQ31TaIE=
-----END PRIVATE KEY-----
